target datalayout = "e-m:e-p270:32:32-p271:32:32-p272:64:64-i64:64-i128:128-f80:128-n8:16:32:64-S128"
target triple = "x86_64-pc-linux-gnu"

%union.ListCell = type { ptr }
%struct.Query = type { i32, i32, i32, i64, i8, ptr, i32, i8, i8, i8, i8, i8, i8, i8, i8, i8, i8, i8, ptr, ptr, ptr, ptr, ptr, i32, ptr, ptr, i32, ptr, ptr, ptr, ptr, ptr, i8, ptr, ptr, ptr, ptr, ptr, ptr, ptr, i32, ptr, ptr, ptr, ptr, i32, i32 }
%struct.List = type { i32, i32, i32, ptr, [0 x %union.ListCell] }
%struct.RangeTblEntry = type { i32, ptr, ptr, i32, i32, i8, i8, i32, i32, ptr, ptr, i8, i32, i32, ptr, ptr, ptr, ptr, ptr, i8, ptr, ptr, ptr, i32, i8, ptr, ptr, ptr, ptr, double, ptr, i8, i8, ptr }
%struct.RangeTblRef = type { i32, i32 }
%struct.FromExpr = type { i32, ptr, ptr }
%struct.Node = type { i32 }

@.str.3 = private unnamed_addr constant [9 x i8] c"*RESULT*\00", align 1

; Function Attrs: inlinehint nounwind uwtable
define internal i32 @list_length(ptr noundef %0) #3 {
  %2 = alloca ptr, align 8
  store ptr %0, ptr %2, align 8
  %3 = load ptr, ptr %2, align 8
  %4 = icmp ne ptr %3, null
  br i1 %4, label %5, label %9

5:                                                ; preds = %1
  %6 = load ptr, ptr %2, align 8
  %7 = getelementptr inbounds nuw %struct.List, ptr %6, i32 0, i32 1
  %8 = load i32, ptr %7, align 4
  br label %10

9:                                                ; preds = %1
  br label %10

10:                                               ; preds = %9, %5
  %11 = phi i32 [ %8, %5 ], [ 0, %9 ]
  ret i32 %11
}

; Function Attrs: inlinehint nounwind uwtable
define internal ptr @newNode(i64 noundef %0, i32 noundef %1) #3 {
  %3 = alloca i64, align 8
  %4 = alloca i32, align 4
  %5 = alloca ptr, align 8
  store i64 %0, ptr %3, align 8
  store i32 %1, ptr %4, align 4
  call void @llvm.lifetime.start.p0(i64 8, ptr %5) #8
  %6 = load i64, ptr %3, align 8
  %7 = call ptr @palloc0(i64 noundef %6)
  store ptr %7, ptr %5, align 8
  %8 = load i32, ptr %4, align 4
  %9 = load ptr, ptr %5, align 8
  %10 = getelementptr inbounds nuw %struct.Node, ptr %9, i32 0, i32 0
  store i32 %8, ptr %10, align 4
  %11 = load ptr, ptr %5, align 8
  call void @llvm.lifetime.end.p0(i64 8, ptr %5) #8
  ret ptr %11
}

; Function Attrs: nounwind uwtable
define dso_local void @replace_empty_jointree(ptr noundef %0) #0 {
  %2 = alloca ptr, align 8
  %3 = alloca ptr, align 8
  %4 = alloca i32, align 4
  %5 = alloca ptr, align 8
  %6 = alloca i32, align 4
  %7 = alloca %union.ListCell, align 8
  store ptr %0, ptr %2, align 8
  call void @llvm.lifetime.start.p0(i64 8, ptr %3) #8
  call void @llvm.lifetime.start.p0(i64 4, ptr %4) #8
  call void @llvm.lifetime.start.p0(i64 8, ptr %5) #8
  %8 = load ptr, ptr %2, align 8
  %9 = getelementptr inbounds nuw %struct.Query, ptr %8, i32 0, i32 21
  %10 = load ptr, ptr %9, align 8
  %11 = getelementptr inbounds nuw %struct.FromExpr, ptr %10, i32 0, i32 1
  %12 = load ptr, ptr %11, align 8
  %13 = icmp ne ptr %12, null
  br i1 %13, label %14, label %15

14:                                               ; preds = %1
  store i32 1, ptr %6, align 4
  br label %51

15:                                               ; preds = %1
  %16 = load ptr, ptr %2, align 8
  %17 = getelementptr inbounds nuw %struct.Query, ptr %16, i32 0, i32 42
  %18 = load ptr, ptr %17, align 8
  %19 = icmp ne ptr %18, null
  br i1 %19, label %20, label %21

20:                                               ; preds = %15
  store i32 1, ptr %6, align 4
  br label %51

21:                                               ; preds = %15
  %22 = call ptr @newNode(i64 noundef 224, i32 noundef 101)
  store ptr %22, ptr %3, align 8
  %23 = load ptr, ptr %3, align 8
  %24 = getelementptr inbounds nuw %struct.RangeTblEntry, ptr %23, i32 0, i32 3
  store i32 8, ptr %24, align 8
  %25 = call ptr @makeAlias(ptr noundef @.str.3, ptr noundef null)
  %26 = load ptr, ptr %3, align 8
  %27 = getelementptr inbounds nuw %struct.RangeTblEntry, ptr %26, i32 0, i32 2
  store ptr %25, ptr %27, align 8
  %28 = load ptr, ptr %2, align 8
  %29 = getelementptr inbounds nuw %struct.Query, ptr %28, i32 0, i32 19
  %30 = load ptr, ptr %29, align 8
  %31 = load ptr, ptr %3, align 8
  %32 = call ptr @lappend(ptr noundef %30, ptr noundef %31)
  %33 = load ptr, ptr %2, align 8
  %34 = getelementptr inbounds nuw %struct.Query, ptr %33, i32 0, i32 19
  store ptr %32, ptr %34, align 8
  %35 = load ptr, ptr %2, align 8
  %36 = getelementptr inbounds nuw %struct.Query, ptr %35, i32 0, i32 19
  %37 = load ptr, ptr %36, align 8
  %38 = call i32 @list_length(ptr noundef %37)
  store i32 %38, ptr %4, align 4
  %39 = call ptr @newNode(i64 noundef 8, i32 noundef 63)
  store ptr %39, ptr %5, align 8
  %40 = load i32, ptr %4, align 4
  %41 = load ptr, ptr %5, align 8
  %42 = getelementptr inbounds nuw %struct.RangeTblRef, ptr %41, i32 0, i32 1
  store i32 %40, ptr %42, align 4
  %43 = load ptr, ptr %5, align 8
  store ptr %43, ptr %7, align 8
  %44 = getelementptr inbounds nuw %union.ListCell, ptr %7, i32 0, i32 0
  %45 = load ptr, ptr %44, align 8
  %46 = call ptr @list_make1_impl(i32 noundef 1, ptr %45)
  %47 = load ptr, ptr %2, align 8
  %48 = getelementptr inbounds nuw %struct.Query, ptr %47, i32 0, i32 21
  %49 = load ptr, ptr %48, align 8
  %50 = getelementptr inbounds nuw %struct.FromExpr, ptr %49, i32 0, i32 1
  store ptr %46, ptr %50, align 8
  store i32 0, ptr %6, align 4
  br label %51

51:                                               ; preds = %21, %20, %14
  call void @llvm.lifetime.end.p0(i64 8, ptr %5) #8
  call void @llvm.lifetime.end.p0(i64 4, ptr %4) #8
  call void @llvm.lifetime.end.p0(i64 8, ptr %3) #8
  %52 = load i32, ptr %6, align 4
  switch i32 %52, label %54 [
    i32 0, label %53
    i32 1, label %53
  ]

53:                                               ; preds = %51, %51
  ret void

54:                                               ; preds = %51
  unreachable
}