; Function Attrs: nounwind uwtable
define dso_local void @replace_empty_jointree(ptr noundef captures(none) %0) local_unnamed_addr #0 {
  %2 = getelementptr inbounds nuw i8, ptr %0, i64 80
  %3 = load ptr, ptr %2, align 8
  %4 = getelementptr inbounds nuw i8, ptr %3, i64 8
  %5 = load ptr, ptr %4, align 8
  %.not = icmp eq ptr %5, null
  br i1 %.not, label %6, label %26

6:                                                ; preds = %1
  %7 = getelementptr inbounds nuw i8, ptr %0, i64 248
  %8 = load ptr, ptr %7, align 8
  %.not11 = icmp eq ptr %8, null
  br i1 %.not11, label %9, label %26

9:                                                ; preds = %6
  %10 = tail call noundef ptr @palloc0(i64 noundef 224) #7
  store i32 101, ptr %10, align 4
  %11 = getelementptr inbounds nuw i8, ptr %10, i64 24
  store i32 8, ptr %11, align 8
  %12 = tail call ptr @makeAlias(ptr noundef nonnull @.str.3, ptr noundef null) #7
  %13 = getelementptr inbounds nuw i8, ptr %10, i64 16
  store ptr %12, ptr %13, align 8
  %14 = getelementptr inbounds nuw i8, ptr %0, i64 64
  %15 = load ptr, ptr %14, align 8
  %16 = tail call ptr @lappend(ptr noundef %15, ptr noundef nonnull %10) #7
  store ptr %16, ptr %14, align 8
  %.not.i = icmp eq ptr %16, null
  br i1 %.not.i, label %list_length.exit, label %17

17:                                               ; preds = %9
  %18 = getelementptr inbounds nuw i8, ptr %16, i64 4
  %19 = load i32, ptr %18, align 4
  br label %list_length.exit

list_length.exit:                                 ; preds = %9, %17
  %20 = phi i32 [ %19, %17 ], [ 0, %9 ]
  %21 = tail call noundef ptr @palloc0(i64 noundef 8) #7
  store i32 63, ptr %21, align 4
  %22 = getelementptr inbounds nuw i8, ptr %21, i64 4
  store i32 %20, ptr %22, align 4
  %23 = tail call ptr @list_make1_impl(i32 noundef 1, ptr nonnull %21) #7
  %24 = load ptr, ptr %2, align 8
  %25 = getelementptr inbounds nuw i8, ptr %24, i64 8
  store ptr %23, ptr %25, align 8
  br label %26

26:                                               ; preds = %6, %1, %list_length.exit
  ret void
}